; Function Attrs: mustprogress uwtable
define internal void @_ZN12_GLOBAL__N_135grpc_ssl_channel_security_connector13CheckCallHostESt17basic_string_viewIcSt11char_traitsIcEEP17grpc_auth_context(ptr noalias nocapture writeonly sret(%"class.grpc_core::ArenaPromise") align 16 %agg.result, ptr noundef nonnull align 8 dereferenceable(136) %this, i64 %host.coerce0, ptr %host.coerce1, ptr noundef %auth_context) unnamed_addr #3 align 2 personality ptr @__gxx_personality_v0 {
_ZN9grpc_core14promise_detail9ImmediateIN4absl12lts_202308026StatusEED2Ev.exit:
  %agg.tmp = alloca %"class.absl::lts_20230802::Status", align 8
  %agg.tmp4 = alloca %"class.std::basic_string_view", align 8
  %target_name_ = getelementptr inbounds i8, ptr %this, i64 64
  %call = tail call noundef ptr @_ZNKSt7__cxx1112basic_stringIcSt11char_traitsIcESaIcEE5c_strEv(ptr noundef nonnull align 8 dereferenceable(32) %target_name_) #17
  %call.i.i = tail call noundef i64 @strlen(ptr noundef nonnull dereferenceable(1) %call) #17
  %overridden_target_name_ = getelementptr inbounds i8, ptr %this, i64 96
  %call5 = tail call noundef ptr @_ZNKSt7__cxx1112basic_stringIcSt11char_traitsIcESaIcEE5c_strEv(ptr noundef nonnull align 8 dereferenceable(32) %overridden_target_name_) #17
  %call.i.i2 = tail call noundef i64 @strlen(ptr noundef nonnull dereferenceable(1) %call5) #17
  store i64 %call.i.i2, ptr %agg.tmp4, align 8
  %_M_str.i3 = getelementptr inbounds i8, ptr %agg.tmp4, i64 8
  store ptr %call5, ptr %_M_str.i3, align 8
  call void @_ZN9grpc_core16SslCheckCallHostESt17basic_string_viewIcSt11char_traitsIcEES3_S3_P17grpc_auth_context(ptr nonnull sret(%"class.absl::lts_20230802::Status") align 8 %agg.tmp, i64 %host.coerce0, ptr %host.coerce1, i64 %call.i.i, ptr %call, ptr noundef nonnull byval(%"class.std::basic_string_view") align 8 %agg.tmp4, ptr noundef %auth_context)
  %0 = load i64, ptr %agg.tmp, align 8, !noalias !15
  %arg.i = getelementptr inbounds i8, ptr %agg.result, i64 16
  store ptr @_ZN9grpc_core20arena_promise_detail7InlinedIN4absl12lts_202308026StatusENS_14promise_detail9ImmediateIS4_EEE6vtableE, ptr %agg.result, align 16
  store i64 %0, ptr %arg.i, align 16
  ret void
}